(dp1
I6790
(dp2
S'listIndex'
p3
I16
sS'group'
p4
I00
sS'name'
p5
S'Alastor (Zor)'
p6
sS'showStatus'
p7
I01
sS'server_completed'
p8
I0
sS'whisper_info'
p9
I01
sS'image'
p10
S'alastor.png'
p11
sS'levelrange'
p12
(lp13
I120
aI120
asS'server_fastest'
p14
I0
sS'alarm'
p15
I00
sS'server_damage'
p16
I0
sS'cooldown'
p17
I7200
sS'selected'
p18
I00
sS'server_cooldown'
p19
I0
sS'ticket'
p20
(lp21
(lp22
I70410
aI1
aasS'static_listIndex'
p23
I17
sS'server_shop_idx'
p24
I1
ssI6791
(dp25
g3
I15
sg4
I00
sg5
S'Alastor (Kolay)'
p26
sg7
I01
sg8
I0
sg9
I01
sg10
g11
sg12
(lp27
I120
aI120
asg14
I0
sg15
I00
sg16
I0
sg17
I7200
sg18
I00
sg19
I0
sg20
(lp28
(lp29
I70410
aI1
aasg23
I16
sg24
I1
ssI20442
(dp30
g3
I10
sg4
I00
sg5
S"Meley'in \xddni"
p31
sg7
I01
sg8
I0
sg9
I01
sg10
S'meley_dungeon.png'
p32
sg12
(lp33
I110
aI120
asg14
I0
sg15
I00
sg16
I0
sg17
I7200
sg18
I00
sg19
I0
sg20
(lp34
(lp35
I25170
aI1
aasg23
I11
sg24
I1
ssI1093
(dp36
g3
I2
sg4
I00
sg5
S'\xdeeytan Kulesi'
p37
sg7
I01
sg8
I0
sg9
I00
sg10
S'deviltower_new.png'
p38
sg12
(lp39
I75
aI90
asg14
I0
sg15
I00
sg16
I0
sg17
I1800
sg18
I00
sg19
I0
sg20
(lp40
(lp41
I25163
aI1
aasg23
I3
sg24
I1
ssI2598
(dp42
g3
I3
sg4
I00
sg5
S'\xdeeytan Katakombu'
p43
sg7
I01
sg8
I0
sg9
I00
sg10
S'devilcatacomb_new.png'
p44
sg12
(lp45
I75
aI105
asg14
I0
sg15
I00
sg16
I0
sg17
I3600
sg18
I00
sg19
I0
sg20
(lp46
(lp47
I25166
aI1
aasg23
I5
sg24
I1
ssI5127
(dp48
g3
I0
sg4
I00
sg5
S'Maymun Zindan\xfd'
p49
sg7
I01
sg8
I0
sg9
I00
sg10
S'ape_dungeon.png'
p50
sg12
(lp51
I50
aI90
asg14
I0
sg15
I00
sg16
I0
sg17
I1800
sg18
I00
sg19
I0
sg20
(lp52
(lp53
I30137
aI1
aasg23
I1
sg24
I1
ssI6091
(dp54
g3
I5
sg4
I00
sg5
S'K\xfdrm\xfdz\xfd Ejd. Kalesi'
p55
sg7
I01
sg8
I0
sg9
I00
sg10
S'flame_dungeon.png'
p56
sg12
(lp57
I90
aI105
asg14
I0
sg15
I00
sg16
I7897
sg17
I3600
sg18
I00
sg19
I0
sg20
(lp58
(lp59
I25167
aI1
aasg23
I6
sg24
I1
ssI2092
(dp60
g3
I1
sg4
I00
sg5
S"\xd6. Barones'in Yuvas\xfd"
p61
sg7
I00
sg8
I0
sg9
I00
sg10
S'sd3_new.png'
p62
sg12
(lp63
I60
aI90
asg14
I0
sg15
I00
sg16
I0
sg17
I3600
sg18
I00
sg19
I0
sg20
(lp64
(lp65
I25164
aI1
aasg23
I2
sg24
I1
ssI6605
(dp66
g3
I13
sg4
I00
sg5
S'Z\xc7: Nemere G\xf6zlemevi'
p67
sg7
I01
sg8
I0
sg9
I01
sg10
S'awaken_nemere.png'
p68
sg12
(lp69
I120
aI120
asg14
I0
sg15
I00
sg16
I0
sg17
I7200
sg18
I00
sg19
I0
sg20
(lp70
(lp71
I49276
aI1
aasg23
I14
sg24
I1
ssI9838
(dp72
g3
I9
sg4
I00
sg5
S'Zodyak Tap\xfdna\xf0\xfd'
p73
sg7
I01
sg8
I0
sg9
I01
sg10
S'chen.png'
p74
sg12
(lp75
I106
aI120
asg14
I0
sg15
I00
sg16
I0
sg17
I7200
sg18
I01
sg19
I0
sg20
(lp76
(lp77
I71095
aI1
aasg23
I10
sg24
I1
ssI6191
(dp78
g3
I6
sg4
I00
sg5
S'Nemere G\xf6zlemevi'
p79
sg7
I01
sg8
I0
sg9
I00
sg10
S'snow_dungeon.png'
p80
sg12
(lp81
I90
aI105
asg14
I0
sg15
I00
sg16
I0
sg17
I3600
sg18
I00
sg19
I0
sg20
(lp82
(lp83
I25168
aI1
aasg23
I7
sg24
I1
ssI6192
(dp84
g3
I7
sg4
I00
sg5
S'Jotun Thrym'
p85
sg7
I01
sg8
I0
sg9
I01
sg10
S'jotun_dungeon.png'
p86
sg12
(lp87
I105
aI120
asg14
I0
sg15
I00
sg16
I3754
sg17
I7200
sg18
I00
sg19
I0
sg20
(lp88
(lp89
I30613
aI1
aasg23
I8
sg24
I1
ssI6756
(dp90
g3
I14
sg4
I00
sg5
S'Y\xfdlan Tap\xfdna\xf0\xfd'
p91
sg7
I01
sg8
I0
sg9
I01
sg10
S'snake.png'
p92
sg12
(lp93
I120
aI120
asg14
I0
sg15
I00
sg16
I6332
sg17
I7200
sg18
I00
sg19
I0
sg20
(lp94
(lp95
I70430
aI1
aasg23
I15
sg24
I1
ssI6755
(dp96
g3
I17
sg4
I00
sg5
S'SungMa \xddstilas\xfd'
p97
sg7
I00
sg8
I0
sg9
I01
sg10
S'Mahi.png'
p98
sg12
(lp99
I120
aI120
asg14
I0
sg15
I00
sg16
I0
sg17
I7200
sg18
I00
sg19
I0
sg20
(lp100
(lp101
I71095
aI1
aasg23
I18
sg24
I1
ssI6606
(dp102
g3
I12
sg4
I00
sg5
S'Z\xc7: K\xfdrm\xfdz\xfd Ejd. Kalesi'
p103
sg7
I01
sg8
I0
sg9
I01
sg10
S'awaken_razador.png'
p104
sg12
(lp105
I120
aI120
asg14
I0
sg15
I00
sg16
I0
sg17
I7200
sg18
I00
sg19
I0
sg20
(lp106
(lp107
I49276
aI1
aasg23
I13
sg24
I1
ssI6500
(dp108
g3
I11
sg4
I00
sg5
S'Akzadur Zindan\xfd'
p109
sg7
I01
sg8
I0
sg9
I01
sg10
S'akzadur_dungeon2.png'
p110
sg12
(lp111
I120
aI120
asg14
I0
sg15
I00
sg16
I0
sg17
I7200
sg18
I00
sg19
I0
sg20
(lp112
(lp113
I49276
aI1
aasg23
I12
sg24
I1
ssI9018
(dp114
g3
I8
sg4
I00
sg5
S'Gemi Savunmas\xfd'
p115
sg7
I01
sg8
I0
sg9
I01
sg10
S'ship_defense.png'
p116
sg12
(lp117
I105
aI120
asg14
I0
sg15
I00
sg16
I0
sg17
I7200
sg18
I00
sg19
I0
sg20
(lp118
(lp119
I25169
aI1
aasg23
I9
sg24
I1
ssI2493
(dp120
g3
I4
sg4
I00
sg5
S'Mavi Ejderha'
p121
sg7
I01
sg8
I0
sg9
I00
sg10
S'dragon_lair.png'
p122
sg12
(lp123
I75
aI105
asg14
I0
sg15
I00
sg16
I0
sg17
I3600
sg18
I00
sg19
I0
sg20
(lp124
(lp125
I25165
aI1
aasg23
I4
sg24
I1
ss.